; ModuleID = '36/1530.c'
source_filename = "36/1530.c"
target datalayout = "e-m:e-p270:32:32-p271:32:32-p272:64:64-i64:64-f80:128-n8:16:32:64-S128"
target triple = "x86_64-pc-linux-gnu"

@.str = private unnamed_addr constant [5 x i8] c"%s%s\00", align 1
@.str.1 = private unnamed_addr constant [4 x i8] c"YES\00", align 1
@.str.2 = private unnamed_addr constant [3 x i8] c"NO\00", align 1

; Function Attrs: noinline nounwind uwtable
define dso_local i32 @main(i32 %0, i8** %1) #0 {
  %3 = alloca i32, align 4
  %4 = alloca i32, align 4
  %5 = alloca i8**, align 8
  %6 = alloca [100 x i8], align 16
  %7 = alloca [100 x i8], align 16
  %8 = alloca i32, align 4
  %9 = alloca i32, align 4
  %10 = alloca i32, align 4
  %11 = alloca i32, align 4
  %12 = alloca i32, align 4
  store i32 0, i32* %3, align 4
  store i32 %0, i32* %4, align 4
  store i8** %1, i8*** %5, align 8
  %13 = getelementptr inbounds [100 x i8], [100 x i8]* %6, i64 0, i64 0
  %14 = getelementptr inbounds [100 x i8], [100 x i8]* %7, i64 0, i64 0
  %15 = call i32 (i8*, ...) @__isoc99_scanf(i8* getelementptr inbounds ([5 x i8], [5 x i8]* @.str, i64 0, i64 0), i8* %13, i8* %14)
  %16 = getelementptr inbounds [100 x i8], [100 x i8]* %6, i64 0, i64 0
  %17 = call i64 @strlen(i8* %16) #3
  %18 = trunc i64 %17 to i32
  store i32 %18, i32* %10, align 4
  %19 = getelementptr inbounds [100 x i8], [100 x i8]* %7, i64 0, i64 0
  %20 = call i64 @strlen(i8* %19) #3
  %21 = trunc i64 %20 to i32
  store i32 %21, i32* %11, align 4
  %22 = load i32, i32* %10, align 4
  %23 = sub nsw i32 %22, 1
  store i32 %23, i32* %8, align 4
  br label %24

24:                                               ; preds = %70, %2
  %25 = load i32, i32* %8, align 4
  %26 = icmp sgt i32 %25, 0
  br i1 %26, label %27, label %73

27:                                               ; preds = %24
  store i32 0, i32* %9, align 4
  br label %28

28:                                               ; preds = %66, %27
  %29 = load i32, i32* %9, align 4
  %30 = load i32, i32* %8, align 4
  %31 = icmp slt i32 %29, %30
  br i1 %31, label %32, label %69

32:                                               ; preds = %28
  %33 = load i32, i32* %9, align 4
  %34 = sext i32 %33 to i64
  %35 = getelementptr inbounds [100 x i8], [100 x i8]* %6, i64 0, i64 %34
  %36 = load i8, i8* %35, align 1
  %37 = sext i8 %36 to i32
  %38 = load i32, i32* %9, align 4
  %39 = add nsw i32 %38, 1
  %40 = sext i32 %39 to i64
  %41 = getelementptr inbounds [100 x i8], [100 x i8]* %6, i64 0, i64 %40
  %42 = load i8, i8* %41, align 1
  %43 = sext i8 %42 to i32
  %44 = icmp sgt i32 %37, %43
  br i1 %44, label %45, label %65

45:                                               ; preds = %32
  %46 = load i32, i32* %9, align 4
  %47 = sext i32 %46 to i64
  %48 = getelementptr inbounds [100 x i8], [100 x i8]* %6, i64 0, i64 %47
  %49 = load i8, i8* %48, align 1
  %50 = sext i8 %49 to i32
  store i32 %50, i32* %12, align 4
  %51 = load i32, i32* %9, align 4
  %52 = add nsw i32 %51, 1
  %53 = sext i32 %52 to i64
  %54 = getelementptr inbounds [100 x i8], [100 x i8]* %6, i64 0, i64 %53
  %55 = load i8, i8* %54, align 1
  %56 = load i32, i32* %9, align 4
  %57 = sext i32 %56 to i64
  %58 = getelementptr inbounds [100 x i8], [100 x i8]* %6, i64 0, i64 %57
  store i8 %55, i8* %58, align 1
  %59 = load i32, i32* %12, align 4
  %60 = trunc i32 %59 to i8
  %61 = load i32, i32* %9, align 4
  %62 = add nsw i32 %61, 1
  %63 = sext i32 %62 to i64
  %64 = getelementptr inbounds [100 x i8], [100 x i8]* %6, i64 0, i64 %63
  store i8 %60, i8* %64, align 1
  br label %65

65:                                               ; preds = %45, %32
  br label %66

66:                                               ; preds = %65
  %67 = load i32, i32* %9, align 4
  %68 = add nsw i32 %67, 1
  store i32 %68, i32* %9, align 4
  br label %28

69:                                               ; preds = %28
  br label %70

70:                                               ; preds = %69
  %71 = load i32, i32* %8, align 4
  %72 = add nsw i32 %71, -1
  store i32 %72, i32* %8, align 4
  br label %24

73:                                               ; preds = %24
  %74 = load i32, i32* %11, align 4
  %75 = sub nsw i32 %74, 1
  store i32 %75, i32* %8, align 4
  br label %76

76:                                               ; preds = %122, %73
  %77 = load i32, i32* %8, align 4
  %78 = icmp sgt i32 %77, 0
  br i1 %78, label %79, label %125

79:                                               ; preds = %76
  store i32 0, i32* %9, align 4
  br label %80

80:                                               ; preds = %118, %79
  %81 = load i32, i32* %9, align 4
  %82 = load i32, i32* %8, align 4
  %83 = icmp slt i32 %81, %82
  br i1 %83, label %84, label %121

84:                                               ; preds = %80
  %85 = load i32, i32* %9, align 4
  %86 = sext i32 %85 to i64
  %87 = getelementptr inbounds [100 x i8], [100 x i8]* %7, i64 0, i64 %86
  %88 = load i8, i8* %87, align 1
  %89 = sext i8 %88 to i32
  %90 = load i32, i32* %9, align 4
  %91 = add nsw i32 %90, 1
  %92 = sext i32 %91 to i64
  %93 = getelementptr inbounds [100 x i8], [100 x i8]* %7, i64 0, i64 %92
  %94 = load i8, i8* %93, align 1
  %95 = sext i8 %94 to i32
  %96 = icmp sgt i32 %89, %95
  br i1 %96, label %97, label %117

97:                                               ; preds = %84
  %98 = load i32, i32* %9, align 4
  %99 = sext i32 %98 to i64
  %100 = getelementptr inbounds [100 x i8], [100 x i8]* %7, i64 0, i64 %99
  %101 = load i8, i8* %100, align 1
  %102 = sext i8 %101 to i32
  store i32 %102, i32* %12, align 4
  %103 = load i32, i32* %9, align 4
  %104 = add nsw i32 %103, 1
  %105 = sext i32 %104 to i64
  %106 = getelementptr inbounds [100 x i8], [100 x i8]* %7, i64 0, i64 %105
  %107 = load i8, i8* %106, align 1
  %108 = load i32, i32* %9, align 4
  %109 = sext i32 %108 to i64
  %110 = getelementptr inbounds [100 x i8], [100 x i8]* %7, i64 0, i64 %109
  store i8 %107, i8* %110, align 1
  %111 = load i32, i32* %12, align 4
  %112 = trunc i32 %111 to i8
  %113 = load i32, i32* %9, align 4
  %114 = add nsw i32 %113, 1
  %115 = sext i32 %114 to i64
  %116 = getelementptr inbounds [100 x i8], [100 x i8]* %7, i64 0, i64 %115
  store i8 %112, i8* %116, align 1
  br label %117

117:                                              ; preds = %97, %84
  br label %118

118:                                              ; preds = %117
  %119 = load i32, i32* %9, align 4
  %120 = add nsw i32 %119, 1
  store i32 %120, i32* %9, align 4
  br label %80

121:                                              ; preds = %80
  br label %122

122:                                              ; preds = %121
  %123 = load i32, i32* %8, align 4
  %124 = add nsw i32 %123, -1
  store i32 %124, i32* %8, align 4
  br label %76

125:                                              ; preds = %76
  %126 = getelementptr inbounds [100 x i8], [100 x i8]* %6, i64 0, i64 0
  %127 = getelementptr inbounds [100 x i8], [100 x i8]* %7, i64 0, i64 0
  %128 = call i32 @strcmp(i8* %126, i8* %127) #3
  %129 = icmp eq i32 %128, 0
  br i1 %129, label %130, label %132

130:                                              ; preds = %125
  %131 = call i32 (i8*, ...) @printf(i8* getelementptr inbounds ([4 x i8], [4 x i8]* @.str.1, i64 0, i64 0))
  br label %134

132:                                              ; preds = %125
  %133 = call i32 (i8*, ...) @printf(i8* getelementptr inbounds ([3 x i8], [3 x i8]* @.str.2, i64 0, i64 0))
  br label %134

134:                                              ; preds = %132, %130
  ret i32 0
}

declare dso_local i32 @__isoc99_scanf(i8*, ...) #1

; Function Attrs: nounwind readonly
declare dso_local i64 @strlen(i8*) #2

; Function Attrs: nounwind readonly
declare dso_local i32 @strcmp(i8*, i8*) #2

declare dso_local i32 @printf(i8*, ...) #1


!llvm.module.flags = !{!0}
!llvm.ident = !{!1}

!0 = !{i32 1, !"wchar_size", i32 4}
!1 = !{!"clang version 10.0.0-4ubuntu1 "}
